target datalayout = "e-m:e-p270:32:32-p271:32:32-p272:64:64-i64:64-i128:128-f80:128-n8:16:32:64-S128"
target triple = "x86_64-pc-linux-gnu"

%struct.SDL_WaylandSeat = type { ptr, ptr, ptr, ptr, ptr, %struct.wl_list, i32, i32, %struct.anon, %struct.anon.1, %struct.anon.4, %struct.anon.5, %struct.anon.6 }
%struct.wl_list = type { ptr, ptr }
%struct.anon = type { ptr, ptr, ptr, ptr, ptr, %struct.SDL_WaylandKeyboardRepeat, i64, i16, i16, i32, i8, %struct.anon.0 }
%struct.SDL_WaylandKeyboardRepeat = type { i32, i32, i32, i8, i8, i32, i64, i64, i64, i32, [8 x i8] }
%struct.anon.0 = type { ptr, ptr, ptr, ptr, i32, i32, i32, i32, i32, i32, i32, i32, i32, i32, i32 }
%struct.anon.1 = type { ptr, ptr, ptr, ptr, ptr, ptr, ptr, ptr, i64, i32, i32, %struct.SDL_Point, i32, %struct.anon.2, %struct.anon.3 }
%struct.SDL_Point = type { i32, i32 }
%struct.anon.2 = type { i32, float, i32, float, i64, i32 }
%struct.anon.3 = type { ptr, ptr, ptr, i64, i64, i32 }
%struct.anon.4 = type { ptr, ptr, i64, %struct.wl_list }
%struct.anon.5 = type { ptr, %struct.SDL_Rect, i8, i8 }
%struct.SDL_Rect = type { i32, i32, i32, i32 }
%struct.anon.6 = type { ptr, %struct.wl_list }
%struct.SDL_AtomicInt = type { i32 }
%struct.SDL_WindowData = type { ptr, ptr, ptr, ptr, ptr, ptr, ptr, %union.anon, i32, i32, i32, i32, ptr, ptr, ptr, ptr, ptr, ptr, ptr, ptr, ptr, ptr, ptr, ptr, ptr, ptr, %struct.SDL_AtomicInt, ptr, i32, ptr, double, ptr, i32, i32, i32, i32, %struct.anon.14, %struct.anon.15, %struct.anon.16, %struct.anon.17, %struct.anon.18, %struct.anon.19, %struct.anon.20, i32, i32, i32, i64, i32, i32, i8, i8, i8, i8, i8, i8, i8, i8, i8, i8, i8, i8, i8, i8, i32, %struct.wl_list }
%union.anon = type { %struct.anon.10 }
%struct.anon.10 = type { ptr, %union.anon.11, i8 }
%union.anon.11 = type { %struct.anon.13 }
%struct.anon.13 = type { ptr, ptr }
%struct.anon.14 = type { double, double }
%struct.anon.15 = type { i32, i32, i32, i32 }
%struct.anon.16 = type { i32, i32, i32, i32 }
%struct.anon.17 = type { i32, i32 }
%struct.anon.18 = type { i32, i32 }
%struct.anon.19 = type { i32, i32 }
%struct.anon.20 = type { i32, i32, i8 }

@WAYLAND_wl_proxy_marshal_flags = external global ptr, align 8
@WAYLAND_wl_proxy_get_version = external global ptr, align 8
@WAYLAND_wl_proxy_destroy = external global ptr, align 8
@WAYLAND_xkb_keymap_unref = external global ptr, align 8
@WAYLAND_xkb_state_unref = external global ptr, align 8
@WAYLAND_xkb_compose_table_unref = external global ptr, align 8
@WAYLAND_xkb_compose_state_unref = external global ptr, align 8

; Function Attrs: inlinehint nounwind uwtable
define internal void @wl_keyboard_destroy(ptr noundef %0) #2 {
  %2 = alloca ptr, align 8
  store ptr %0, ptr %2, align 8
  %3 = load ptr, ptr @WAYLAND_wl_proxy_destroy, align 8
  %4 = load ptr, ptr %2, align 8
  call void %3(ptr noundef %4)
  ret void
}

; Function Attrs: inlinehint nounwind uwtable
define internal void @wl_keyboard_release(ptr noundef %0) #2 {
  %2 = alloca ptr, align 8
  store ptr %0, ptr %2, align 8
  %3 = load ptr, ptr @WAYLAND_wl_proxy_marshal_flags, align 8
  %4 = load ptr, ptr %2, align 8
  %5 = load ptr, ptr @WAYLAND_wl_proxy_get_version, align 8
  %6 = load ptr, ptr %2, align 8
  %7 = call i32 %5(ptr noundef %6)
  %8 = call ptr (ptr, i32, ptr, i32, i32, ...) %3(ptr noundef %4, i32 noundef 0, ptr noundef null, i32 noundef %7, i32 noundef 1)
  ret void
}

; Function Attrs: inlinehint nounwind uwtable
define internal i32 @wl_keyboard_get_version(ptr noundef %0) #2 {
  %2 = alloca ptr, align 8
  store ptr %0, ptr %2, align 8
  %3 = load ptr, ptr @WAYLAND_wl_proxy_get_version, align 8
  %4 = load ptr, ptr %2, align 8
  %5 = call i32 %3(ptr noundef %4)
  ret i32 %5
}

; Function Attrs: inlinehint nounwind uwtable
define internal void @zwp_input_timestamps_v1_destroy(ptr noundef %0) #2 {
  %2 = alloca ptr, align 8
  store ptr %0, ptr %2, align 8
  %3 = load ptr, ptr @WAYLAND_wl_proxy_marshal_flags, align 8
  %4 = load ptr, ptr %2, align 8
  %5 = load ptr, ptr @WAYLAND_wl_proxy_get_version, align 8
  %6 = load ptr, ptr %2, align 8
  %7 = call i32 %5(ptr noundef %6)
  %8 = call ptr (ptr, i32, ptr, i32, i32, ...) %3(ptr noundef %4, i32 noundef 0, ptr noundef null, i32 noundef %7, i32 noundef 1)
  ret void
}

; Function Attrs: inlinehint nounwind uwtable
define internal void @zwp_keyboard_shortcuts_inhibitor_v1_destroy(ptr noundef %0) #2 {
  %2 = alloca ptr, align 8
  store ptr %0, ptr %2, align 8
  %3 = load ptr, ptr @WAYLAND_wl_proxy_marshal_flags, align 8
  %4 = load ptr, ptr %2, align 8
  %5 = load ptr, ptr @WAYLAND_wl_proxy_get_version, align 8
  %6 = load ptr, ptr %2, align 8
  %7 = call i32 %5(ptr noundef %6)
  %8 = call ptr (ptr, i32, ptr, i32, i32, ...) %3(ptr noundef %4, i32 noundef 0, ptr noundef null, i32 noundef %7, i32 noundef 1)
  ret void
}

; Function Attrs: nounwind uwtable
define internal void @Wayland_SeatDestroyKeyboard(ptr noundef %0, i1 noundef zeroext %1) #0 {
  %3 = alloca ptr, align 8
  %4 = alloca i8, align 1
  store ptr %0, ptr %3, align 8
  %5 = zext i1 %1 to i8
  store i8 %5, ptr %4, align 1
  %6 = load ptr, ptr %3, align 8
  %7 = getelementptr inbounds nuw %struct.SDL_WaylandSeat, ptr %6, i32 0, i32 8
  %8 = getelementptr inbounds nuw %struct.anon, ptr %7, i32 0, i32 3
  %9 = load ptr, ptr %8, align 8
  %10 = icmp ne ptr %9, null
  br i1 %10, label %11, label %23

11:                                               ; preds = %2
  %12 = load ptr, ptr %3, align 8
  %13 = load ptr, ptr %3, align 8
  %14 = getelementptr inbounds nuw %struct.SDL_WaylandSeat, ptr %13, i32 0, i32 8
  %15 = getelementptr inbounds nuw %struct.anon, ptr %14, i32 0, i32 0
  %16 = load ptr, ptr %15, align 8
  %17 = load ptr, ptr %3, align 8
  %18 = getelementptr inbounds nuw %struct.SDL_WaylandSeat, ptr %17, i32 0, i32 8
  %19 = getelementptr inbounds nuw %struct.anon, ptr %18, i32 0, i32 3
  %20 = load ptr, ptr %19, align 8
  %21 = getelementptr inbounds nuw %struct.SDL_WindowData, ptr %20, i32 0, i32 2
  %22 = load ptr, ptr %21, align 8
  call void @keyboard_handle_leave(ptr noundef %12, ptr noundef %16, i32 noundef 0, ptr noundef %22)
  br label %23

23:                                               ; preds = %11, %2
  %24 = load ptr, ptr %3, align 8
  %25 = getelementptr inbounds nuw %struct.SDL_WaylandSeat, ptr %24, i32 0, i32 8
  %26 = getelementptr inbounds nuw %struct.anon, ptr %25, i32 0, i32 9
  %27 = load i32, ptr %26, align 4
  %28 = load i8, ptr %4, align 1, !range !7, !noundef !8
  %29 = trunc i8 %28 to i1
  call void @SDL_RemoveKeyboard(i32 noundef %27, i1 noundef zeroext %29)
  %30 = load ptr, ptr %3, align 8
  %31 = getelementptr inbounds nuw %struct.SDL_WaylandSeat, ptr %30, i32 0, i32 8
  %32 = getelementptr inbounds nuw %struct.anon, ptr %31, i32 0, i32 4
  %33 = load ptr, ptr %32, align 8
  %34 = icmp ne ptr %33, null
  br i1 %34, label %35, label %48

35:                                               ; preds = %23
  %36 = load ptr, ptr %3, align 8
  %37 = getelementptr inbounds nuw %struct.SDL_WaylandSeat, ptr %36, i32 0, i32 8
  %38 = getelementptr inbounds nuw %struct.anon, ptr %37, i32 0, i32 4
  %39 = load ptr, ptr %38, align 8
  %40 = call ptr @SDL_GetCurrentKeymap()
  %41 = icmp eq ptr %39, %40
  br i1 %41, label %42, label %43

42:                                               ; preds = %35
  call void @SDL_SetKeymap(ptr noundef null, i1 noundef zeroext false)
  br label %43

43:                                               ; preds = %42, %35
  %44 = load ptr, ptr %3, align 8
  %45 = getelementptr inbounds nuw %struct.SDL_WaylandSeat, ptr %44, i32 0, i32 8
  %46 = getelementptr inbounds nuw %struct.anon, ptr %45, i32 0, i32 4
  %47 = load ptr, ptr %46, align 8
  call void @SDL_DestroyKeymap(ptr noundef %47)
  br label %48

48:                                               ; preds = %43, %23
  %49 = load ptr, ptr %3, align 8
  %50 = getelementptr inbounds nuw %struct.SDL_WaylandSeat, ptr %49, i32 0, i32 8
  %51 = getelementptr inbounds nuw %struct.anon, ptr %50, i32 0, i32 2
  %52 = load ptr, ptr %51, align 8
  %53 = icmp ne ptr %52, null
  br i1 %53, label %54, label %59

54:                                               ; preds = %48
  %55 = load ptr, ptr %3, align 8
  %56 = getelementptr inbounds nuw %struct.SDL_WaylandSeat, ptr %55, i32 0, i32 8
  %57 = getelementptr inbounds nuw %struct.anon, ptr %56, i32 0, i32 2
  %58 = load ptr, ptr %57, align 8
  call void @zwp_keyboard_shortcuts_inhibitor_v1_destroy(ptr noundef %58)
  br label %59

59:                                               ; preds = %54, %48
  %60 = load ptr, ptr %3, align 8
  %61 = getelementptr inbounds nuw %struct.SDL_WaylandSeat, ptr %60, i32 0, i32 8
  %62 = getelementptr inbounds nuw %struct.anon, ptr %61, i32 0, i32 1
  %63 = load ptr, ptr %62, align 8
  %64 = icmp ne ptr %63, null
  br i1 %64, label %65, label %70

65:                                               ; preds = %59
  %66 = load ptr, ptr %3, align 8
  %67 = getelementptr inbounds nuw %struct.SDL_WaylandSeat, ptr %66, i32 0, i32 8
  %68 = getelementptr inbounds nuw %struct.anon, ptr %67, i32 0, i32 1
  %69 = load ptr, ptr %68, align 8
  call void @zwp_input_timestamps_v1_destroy(ptr noundef %69)
  br label %70

70:                                               ; preds = %65, %59
  %71 = load ptr, ptr %3, align 8
  %72 = getelementptr inbounds nuw %struct.SDL_WaylandSeat, ptr %71, i32 0, i32 8
  %73 = getelementptr inbounds nuw %struct.anon, ptr %72, i32 0, i32 0
  %74 = load ptr, ptr %73, align 8
  %75 = icmp ne ptr %74, null
  br i1 %75, label %76, label %94

76:                                               ; preds = %70
  %77 = load ptr, ptr %3, align 8
  %78 = getelementptr inbounds nuw %struct.SDL_WaylandSeat, ptr %77, i32 0, i32 8
  %79 = getelementptr inbounds nuw %struct.anon, ptr %78, i32 0, i32 0
  %80 = load ptr, ptr %79, align 8
  %81 = call i32 @wl_keyboard_get_version(ptr noundef %80)
  %82 = icmp uge i32 %81, 3
  br i1 %82, label %83, label %88

83:                                               ; preds = %76
  %84 = load ptr, ptr %3, align 8
  %85 = getelementptr inbounds nuw %struct.SDL_WaylandSeat, ptr %84, i32 0, i32 8
  %86 = getelementptr inbounds nuw %struct.anon, ptr %85, i32 0, i32 0
  %87 = load ptr, ptr %86, align 8
  call void @wl_keyboard_release(ptr noundef %87)
  br label %93

88:                                               ; preds = %76
  %89 = load ptr, ptr %3, align 8
  %90 = getelementptr inbounds nuw %struct.SDL_WaylandSeat, ptr %89, i32 0, i32 8
  %91 = getelementptr inbounds nuw %struct.anon, ptr %90, i32 0, i32 0
  %92 = load ptr, ptr %91, align 8
  call void @wl_keyboard_destroy(ptr noundef %92)
  br label %93

93:                                               ; preds = %88, %83
  br label %94

94:                                               ; preds = %93, %70
  %95 = load ptr, ptr %3, align 8
  %96 = getelementptr inbounds nuw %struct.SDL_WaylandSeat, ptr %95, i32 0, i32 8
  %97 = getelementptr inbounds nuw %struct.anon, ptr %96, i32 0, i32 11
  %98 = getelementptr inbounds nuw %struct.anon.0, ptr %97, i32 0, i32 3
  %99 = load ptr, ptr %98, align 8
  %100 = icmp ne ptr %99, null
  br i1 %100, label %101, label %108

101:                                              ; preds = %94
  %102 = load ptr, ptr @WAYLAND_xkb_compose_state_unref, align 8
  %103 = load ptr, ptr %3, align 8
  %104 = getelementptr inbounds nuw %struct.SDL_WaylandSeat, ptr %103, i32 0, i32 8
  %105 = getelementptr inbounds nuw %struct.anon, ptr %104, i32 0, i32 11
  %106 = getelementptr inbounds nuw %struct.anon.0, ptr %105, i32 0, i32 3
  %107 = load ptr, ptr %106, align 8
  call void %102(ptr noundef %107)
  br label %108

108:                                              ; preds = %101, %94
  %109 = load ptr, ptr %3, align 8
  %110 = getelementptr inbounds nuw %struct.SDL_WaylandSeat, ptr %109, i32 0, i32 8
  %111 = getelementptr inbounds nuw %struct.anon, ptr %110, i32 0, i32 11
  %112 = getelementptr inbounds nuw %struct.anon.0, ptr %111, i32 0, i32 2
  %113 = load ptr, ptr %112, align 8
  %114 = icmp ne ptr %113, null
  br i1 %114, label %115, label %122

115:                                              ; preds = %108
  %116 = load ptr, ptr @WAYLAND_xkb_compose_table_unref, align 8
  %117 = load ptr, ptr %3, align 8
  %118 = getelementptr inbounds nuw %struct.SDL_WaylandSeat, ptr %117, i32 0, i32 8
  %119 = getelementptr inbounds nuw %struct.anon, ptr %118, i32 0, i32 11
  %120 = getelementptr inbounds nuw %struct.anon.0, ptr %119, i32 0, i32 2
  %121 = load ptr, ptr %120, align 8
  call void %116(ptr noundef %121)
  br label %122

122:                                              ; preds = %115, %108
  %123 = load ptr, ptr %3, align 8
  %124 = getelementptr inbounds nuw %struct.SDL_WaylandSeat, ptr %123, i32 0, i32 8
  %125 = getelementptr inbounds nuw %struct.anon, ptr %124, i32 0, i32 11
  %126 = getelementptr inbounds nuw %struct.anon.0, ptr %125, i32 0, i32 1
  %127 = load ptr, ptr %126, align 8
  %128 = icmp ne ptr %127, null
  br i1 %128, label %129, label %136

129:                                              ; preds = %122
  %130 = load ptr, ptr @WAYLAND_xkb_state_unref, align 8
  %131 = load ptr, ptr %3, align 8
  %132 = getelementptr inbounds nuw %struct.SDL_WaylandSeat, ptr %131, i32 0, i32 8
  %133 = getelementptr inbounds nuw %struct.anon, ptr %132, i32 0, i32 11
  %134 = getelementptr inbounds nuw %struct.anon.0, ptr %133, i32 0, i32 1
  %135 = load ptr, ptr %134, align 8
  call void %130(ptr noundef %135)
  br label %136

136:                                              ; preds = %129, %122
  %137 = load ptr, ptr %3, align 8
  %138 = getelementptr inbounds nuw %struct.SDL_WaylandSeat, ptr %137, i32 0, i32 8
  %139 = getelementptr inbounds nuw %struct.anon, ptr %138, i32 0, i32 11
  %140 = getelementptr inbounds nuw %struct.anon.0, ptr %139, i32 0, i32 0
  %141 = load ptr, ptr %140, align 8
  %142 = icmp ne ptr %141, null
  br i1 %142, label %143, label %150

143:                                              ; preds = %136
  %144 = load ptr, ptr @WAYLAND_xkb_keymap_unref, align 8
  %145 = load ptr, ptr %3, align 8
  %146 = getelementptr inbounds nuw %struct.SDL_WaylandSeat, ptr %145, i32 0, i32 8
  %147 = getelementptr inbounds nuw %struct.anon, ptr %146, i32 0, i32 11
  %148 = getelementptr inbounds nuw %struct.anon.0, ptr %147, i32 0, i32 0
  %149 = load ptr, ptr %148, align 8
  call void %144(ptr noundef %149)
  br label %150

150:                                              ; preds = %143, %136
  %151 = load ptr, ptr %3, align 8
  %152 = getelementptr inbounds nuw %struct.SDL_WaylandSeat, ptr %151, i32 0, i32 8
  call void @llvm.memset.p0.i64(ptr align 8 %152, i8 0, i64 208, i1 false)
  ret void
}