; Function Attrs: nounwind uwtable
define internal fastcc void @Wayland_SeatDestroyKeyboard(ptr noundef captures(none) %0, i1 noundef zeroext %1) unnamed_addr #0 {
  %3 = getelementptr inbounds nuw i8, ptr %0, i64 64
  %4 = getelementptr inbounds nuw i8, ptr %0, i64 88
  %5 = load ptr, ptr %4, align 8
  %.not = icmp eq ptr %5, null
  br i1 %.not, label %9, label %6

6:                                                ; preds = %2
  %7 = getelementptr inbounds nuw i8, ptr %5, i64 16
  %8 = load ptr, ptr %7, align 8
  tail call void @keyboard_handle_leave(ptr noundef nonnull %0, ptr poison, i32 poison, ptr noundef %8)
  br label %9

9:                                                ; preds = %6, %2
  %10 = getelementptr inbounds nuw i8, ptr %0, i64 180
  %11 = load i32, ptr %10, align 4
  tail call void @SDL_RemoveKeyboard(i32 noundef %11, i1 noundef zeroext %1) #12
  %12 = getelementptr inbounds nuw i8, ptr %0, i64 96
  %13 = load ptr, ptr %12, align 8
  %.not33 = icmp eq ptr %13, null
  br i1 %.not33, label %20, label %14

14:                                               ; preds = %9
  %15 = tail call ptr @SDL_GetCurrentKeymap() #12
  %16 = icmp eq ptr %13, %15
  br i1 %16, label %17, label %18

17:                                               ; preds = %14
  tail call void @SDL_SetKeymap(ptr noundef null, i1 noundef zeroext false) #12
  br label %18

18:                                               ; preds = %17, %14
  %19 = load ptr, ptr %12, align 8
  tail call void @SDL_DestroyKeymap(ptr noundef %19) #12
  br label %20

20:                                               ; preds = %18, %9
  %21 = getelementptr inbounds nuw i8, ptr %0, i64 80
  %22 = load ptr, ptr %21, align 8
  %.not34 = icmp eq ptr %22, null
  br i1 %.not34, label %28, label %23

23:                                               ; preds = %20
  %24 = load ptr, ptr @WAYLAND_wl_proxy_marshal_flags, align 8
  %25 = load ptr, ptr @WAYLAND_wl_proxy_get_version, align 8
  %26 = tail call i32 %25(ptr noundef nonnull %22) #12
  %27 = tail call ptr (ptr, i32, ptr, i32, i32, ...) %24(ptr noundef nonnull %22, i32 noundef 0, ptr noundef null, i32 noundef %26, i32 noundef 1) #12
  br label %28

28:                                               ; preds = %23, %20
  %29 = getelementptr inbounds nuw i8, ptr %0, i64 72
  %30 = load ptr, ptr %29, align 8
  %.not35 = icmp eq ptr %30, null
  br i1 %.not35, label %36, label %31

31:                                               ; preds = %28
  %32 = load ptr, ptr @WAYLAND_wl_proxy_marshal_flags, align 8
  %33 = load ptr, ptr @WAYLAND_wl_proxy_get_version, align 8
  %34 = tail call i32 %33(ptr noundef nonnull %30) #12
  %35 = tail call ptr (ptr, i32, ptr, i32, i32, ...) %32(ptr noundef nonnull %30, i32 noundef 0, ptr noundef null, i32 noundef %34, i32 noundef 1) #12
  br label %36

36:                                               ; preds = %31, %28
  %37 = load ptr, ptr %3, align 8
  %.not36 = icmp eq ptr %37, null
  br i1 %.not36, label %50, label %38

38:                                               ; preds = %36
  %39 = load ptr, ptr @WAYLAND_wl_proxy_get_version, align 8
  %40 = tail call i32 %39(ptr noundef nonnull %37) #12
  %41 = icmp ugt i32 %40, 2
  %42 = load ptr, ptr %3, align 8
  br i1 %41, label %43, label %48

43:                                               ; preds = %38
  %44 = load ptr, ptr @WAYLAND_wl_proxy_marshal_flags, align 8
  %45 = load ptr, ptr @WAYLAND_wl_proxy_get_version, align 8
  %46 = tail call i32 %45(ptr noundef %42) #12
  %47 = tail call ptr (ptr, i32, ptr, i32, i32, ...) %44(ptr noundef %42, i32 noundef 0, ptr noundef null, i32 noundef %46, i32 noundef 1) #12
  br label %50

48:                                               ; preds = %38
  %49 = load ptr, ptr @WAYLAND_wl_proxy_destroy, align 8
  tail call void %49(ptr noundef %42) #12
  br label %50

50:                                               ; preds = %43, %48, %36
  %51 = getelementptr inbounds nuw i8, ptr %0, i64 192
  %52 = getelementptr inbounds nuw i8, ptr %0, i64 216
  %53 = load ptr, ptr %52, align 8
  %.not37 = icmp eq ptr %53, null
  br i1 %.not37, label %56, label %54

54:                                               ; preds = %50
  %55 = load ptr, ptr @WAYLAND_xkb_compose_state_unref, align 8
  tail call void %55(ptr noundef nonnull %53) #12
  br label %56

56:                                               ; preds = %54, %50
  %57 = getelementptr inbounds nuw i8, ptr %0, i64 208
  %58 = load ptr, ptr %57, align 8
  %.not38 = icmp eq ptr %58, null
  br i1 %.not38, label %61, label %59

59:                                               ; preds = %56
  %60 = load ptr, ptr @WAYLAND_xkb_compose_table_unref, align 8
  tail call void %60(ptr noundef nonnull %58) #12
  br label %61

61:                                               ; preds = %59, %56
  %62 = getelementptr inbounds nuw i8, ptr %0, i64 200
  %63 = load ptr, ptr %62, align 8
  %.not39 = icmp eq ptr %63, null
  br i1 %.not39, label %66, label %64

64:                                               ; preds = %61
  %65 = load ptr, ptr @WAYLAND_xkb_state_unref, align 8
  tail call void %65(ptr noundef nonnull %63) #12
  br label %66

66:                                               ; preds = %64, %61
  %67 = load ptr, ptr %51, align 8
  %.not40 = icmp eq ptr %67, null
  br i1 %.not40, label %70, label %68

68:                                               ; preds = %66
  %69 = load ptr, ptr @WAYLAND_xkb_keymap_unref, align 8
  tail call void %69(ptr noundef nonnull %67) #12
  br label %70

70:                                               ; preds = %68, %66
  tail call void @llvm.memset.p0.i64(ptr noundef nonnull align 8 dereferenceable(208) %3, i8 0, i64 208, i1 false)
  ret void
}